(dp1
S'n_folds'
p2
I3
sS'alphas'
p3
(I1
I4
I9
tp4
sS'gammas'
p5
cnumpy.core.multiarray
_reconstruct
p6
(cnumpy
ndarray
p7
(I0
tS'b'
tRp8
(I1
(I2
tcnumpy
dtype
p9
(S'f8'
I0
I1
tRp10
(I3
S'<'
NNNI-1
I-1
I0
tbI00
S'\x9a\x99\x99\x99\x99\x99\xb9?{\x14\xaeG\xe1z\x84?'
tbsS'max_epoch'
p11
I50
sS'batch_sizes'
p12
(I32
I512
I4096
tp13
s.